; Function Attrs: mustprogress uwtable
define hidden void @_ZN2cv13wechat_qrcode9ImgSource6createEPhii(ptr dead_on_unwind noalias writable writeonly sret(%"class.zxing::Ref") align 8 captures(none) %0, ptr noundef %1, i32 noundef %2, i32 noundef %3) local_unnamed_addr #0 align 2 personality ptr @__gxx_personality_v0 {
  %5 = tail call noalias noundef nonnull dereferenceable(80) ptr @_Znwm(i64 noundef 80) #14
  invoke void @_ZN2cv13wechat_qrcode9ImgSourceC2EPhii(ptr noundef nonnull align 8 dereferenceable(80) %5, ptr noundef %1, i32 noundef %2, i32 noundef %3)
          to label %_ZN5zxing3RefIN2cv13wechat_qrcode9ImgSourceEEC2EPS3_.exit unwind label %9

_ZN5zxing3RefIN2cv13wechat_qrcode9ImgSourceEEC2EPS3_.exit: ; preds = %4
  %6 = getelementptr inbounds nuw i8, ptr %5, i64 8
  %7 = load i32, ptr %6, align 8
  %8 = add i32 %7, 1
  store i32 %8, ptr %6, align 8
  store ptr %5, ptr %0, align 8
  ret void

9:                                                ; preds = %4
  %10 = landingpad { ptr, i32 }
          cleanup
  tail call void @_ZdlPv(ptr noundef nonnull %5) #16
  resume { ptr, i32 } %10
}